target datalayout = "e-m:e-p270:32:32-p271:32:32-p272:64:64-i64:64-i128:128-f80:128-n8:16:32:64-S128"
target triple = "x86_64-unknown-linux-gnu"

%"class.icu_75::ScriptRunIterator" = type <{ ptr, i32, i32, i32, i32, i32, [4 x i8] }>

; Function Attrs: mustprogress uwtable
define linkonce_odr noundef i32 @_ZNK6icu_7511Replaceable8char32AtEi(ptr noundef nonnull align 8 dereferenceable(8) %this, i32 noundef %offset) #1 comdat align 2 {
entry:
  %this.addr = alloca ptr, align 8
  %offset.addr = alloca i32, align 4
  store ptr %this, ptr %this.addr, align 8
  store i32 %offset, ptr %offset.addr, align 4
  %this1 = load ptr, ptr %this.addr, align 8
  %0 = load i32, ptr %offset.addr, align 4
  %vtable = load ptr, ptr %this1, align 8
  %vfn = getelementptr inbounds ptr, ptr %vtable, i64 10
  %1 = load ptr, ptr %vfn, align 8
  %call = call noundef i32 %1(ptr noundef nonnull align 8 dereferenceable(8) %this1, i32 noundef %0)
  ret i32 %call
}

; Function Attrs: mustprogress uwtable
define noundef signext i8 @_ZN6icu_7517ScriptRunIterator4nextEv(ptr noundef nonnull align 8 dereferenceable(28) %this) #1 align 2 {
entry:
  %retval = alloca i8, align 1
  %this.addr = alloca ptr, align 8
  %ch = alloca i32, align 4
  %s = alloca i32, align 4
  %ec = alloca i32, align 4
  store ptr %this, ptr %this.addr, align 8
  %this1 = load ptr, ptr %this.addr, align 8
  store i32 0, ptr %ec, align 4
  %scriptCode = getelementptr inbounds %"class.icu_75::ScriptRunIterator", ptr %this1, i32 0, i32 3
  store i32 -1, ptr %scriptCode, align 8
  %limit = getelementptr inbounds %"class.icu_75::ScriptRunIterator", ptr %this1, i32 0, i32 5
  %0 = load i32, ptr %limit, align 8
  %start = getelementptr inbounds %"class.icu_75::ScriptRunIterator", ptr %this1, i32 0, i32 4
  store i32 %0, ptr %start, align 4
  %start2 = getelementptr inbounds %"class.icu_75::ScriptRunIterator", ptr %this1, i32 0, i32 4
  %1 = load i32, ptr %start2, align 4
  %textLimit = getelementptr inbounds %"class.icu_75::ScriptRunIterator", ptr %this1, i32 0, i32 2
  %2 = load i32, ptr %textLimit, align 4
  %cmp = icmp eq i32 %1, %2
  br i1 %cmp, label %if.then, label %if.end

if.then:                                          ; preds = %entry
  store i8 0, ptr %retval, align 1
  br label %return

if.end:                                           ; preds = %entry
  br label %while.cond

while.cond:                                       ; preds = %if.end11, %if.end
  %start3 = getelementptr inbounds %"class.icu_75::ScriptRunIterator", ptr %this1, i32 0, i32 4
  %3 = load i32, ptr %start3, align 4
  %textStart = getelementptr inbounds %"class.icu_75::ScriptRunIterator", ptr %this1, i32 0, i32 1
  %4 = load i32, ptr %textStart, align 8
  %cmp4 = icmp sgt i32 %3, %4
  br i1 %cmp4, label %while.body, label %while.end

while.body:                                       ; preds = %while.cond
  %text = getelementptr inbounds %"class.icu_75::ScriptRunIterator", ptr %this1, i32 0, i32 0
  %5 = load ptr, ptr %text, align 8
  %start5 = getelementptr inbounds %"class.icu_75::ScriptRunIterator", ptr %this1, i32 0, i32 4
  %6 = load i32, ptr %start5, align 4
  %sub = sub nsw i32 %6, 1
  %call = call noundef i32 @_ZNK6icu_7511Replaceable8char32AtEi(ptr noundef nonnull align 8 dereferenceable(8) %5, i32 noundef %sub)
  store i32 %call, ptr %ch, align 4
  %7 = load i32, ptr %ch, align 4
  %call6 = call i32 @uscript_getScript_75(i32 noundef %7, ptr noundef %ec)
  store i32 %call6, ptr %s, align 4
  %8 = load i32, ptr %s, align 4
  %cmp7 = icmp eq i32 %8, 0
  br i1 %cmp7, label %if.then9, label %lor.lhs.false

lor.lhs.false:                                    ; preds = %while.body
  %9 = load i32, ptr %s, align 4
  %cmp8 = icmp eq i32 %9, 1
  br i1 %cmp8, label %if.then9, label %if.else

if.then9:                                         ; preds = %lor.lhs.false, %while.body
  %start10 = getelementptr inbounds %"class.icu_75::ScriptRunIterator", ptr %this1, i32 0, i32 4
  %10 = load i32, ptr %start10, align 4
  %dec = add nsw i32 %10, -1
  store i32 %dec, ptr %start10, align 4
  br label %if.end11

if.else:                                          ; preds = %lor.lhs.false
  br label %while.end

if.end11:                                         ; preds = %if.then9
  br label %while.cond, !llvm.loop !4

while.end:                                        ; preds = %if.else, %while.cond
  br label %while.cond12

while.cond12:                                     ; preds = %if.end34, %while.end
  %limit13 = getelementptr inbounds %"class.icu_75::ScriptRunIterator", ptr %this1, i32 0, i32 5
  %11 = load i32, ptr %limit13, align 8
  %textLimit14 = getelementptr inbounds %"class.icu_75::ScriptRunIterator", ptr %this1, i32 0, i32 2
  %12 = load i32, ptr %textLimit14, align 4
  %cmp15 = icmp slt i32 %11, %12
  br i1 %cmp15, label %while.body16, label %while.end36

while.body16:                                     ; preds = %while.cond12
  %text17 = getelementptr inbounds %"class.icu_75::ScriptRunIterator", ptr %this1, i32 0, i32 0
  %13 = load ptr, ptr %text17, align 8
  %limit18 = getelementptr inbounds %"class.icu_75::ScriptRunIterator", ptr %this1, i32 0, i32 5
  %14 = load i32, ptr %limit18, align 8
  %call19 = call noundef i32 @_ZNK6icu_7511Replaceable8char32AtEi(ptr noundef nonnull align 8 dereferenceable(8) %13, i32 noundef %14)
  store i32 %call19, ptr %ch, align 4
  %15 = load i32, ptr %ch, align 4
  %call20 = call i32 @uscript_getScript_75(i32 noundef %15, ptr noundef %ec)
  store i32 %call20, ptr %s, align 4
  %16 = load i32, ptr %s, align 4
  %cmp21 = icmp ne i32 %16, 0
  br i1 %cmp21, label %land.lhs.true, label %if.end34

land.lhs.true:                                    ; preds = %while.body16
  %17 = load i32, ptr %s, align 4
  %cmp22 = icmp ne i32 %17, 1
  br i1 %cmp22, label %if.then23, label %if.end34

if.then23:                                        ; preds = %land.lhs.true
  %scriptCode24 = getelementptr inbounds %"class.icu_75::ScriptRunIterator", ptr %this1, i32 0, i32 3
  %18 = load i32, ptr %scriptCode24, align 8
  %cmp25 = icmp eq i32 %18, -1
  br i1 %cmp25, label %if.then26, label %if.else28

if.then26:                                        ; preds = %if.then23
  %19 = load i32, ptr %s, align 4
  %scriptCode27 = getelementptr inbounds %"class.icu_75::ScriptRunIterator", ptr %this1, i32 0, i32 3
  store i32 %19, ptr %scriptCode27, align 8
  br label %if.end33

if.else28:                                        ; preds = %if.then23
  %20 = load i32, ptr %s, align 4
  %scriptCode29 = getelementptr inbounds %"class.icu_75::ScriptRunIterator", ptr %this1, i32 0, i32 3
  %21 = load i32, ptr %scriptCode29, align 8
  %cmp30 = icmp ne i32 %20, %21
  br i1 %cmp30, label %if.then31, label %if.end32

if.then31:                                        ; preds = %if.else28
  br label %while.end36

if.end32:                                         ; preds = %if.else28
  br label %if.end33

if.end33:                                         ; preds = %if.end32, %if.then26
  br label %if.end34

if.end34:                                         ; preds = %if.end33, %land.lhs.true, %while.body16
  %limit35 = getelementptr inbounds %"class.icu_75::ScriptRunIterator", ptr %this1, i32 0, i32 5
  %22 = load i32, ptr %limit35, align 8
  %inc = add nsw i32 %22, 1
  store i32 %inc, ptr %limit35, align 8
  br label %while.cond12, !llvm.loop !6

while.end36:                                      ; preds = %if.then31, %while.cond12
  store i8 1, ptr %retval, align 1
  br label %return

return:                                           ; preds = %while.end36, %if.then
  %23 = load i8, ptr %retval, align 1
  ret i8 %23
}