; Function Attrs: mustprogress uwtable
define noundef signext i8 @_ZN6icu_7517ScriptRunIterator4nextEv(ptr nocapture noundef nonnull align 8 dereferenceable(28) %this) local_unnamed_addr #1 align 2 {
entry:
  %ec = alloca i32, align 4
  store i32 0, ptr %ec, align 4
  %scriptCode = getelementptr inbounds i8, ptr %this, i64 16
  store i32 -1, ptr %scriptCode, align 8
  %limit = getelementptr inbounds i8, ptr %this, i64 24
  %0 = load i32, ptr %limit, align 8
  %start = getelementptr inbounds i8, ptr %this, i64 20
  store i32 %0, ptr %start, align 4
  %textLimit = getelementptr inbounds i8, ptr %this, i64 12
  %1 = load i32, ptr %textLimit, align 4
  %cmp = icmp eq i32 %0, %1
  br i1 %cmp, label %return, label %while.cond.preheader

while.cond.preheader:                             ; preds = %entry
  %textStart = getelementptr inbounds i8, ptr %this, i64 8
  %2 = load i32, ptr %textStart, align 8
  %cmp413 = icmp sgt i32 %0, %2
  br i1 %cmp413, label %while.body, label %while.end

while.body:                                       ; preds = %while.cond.preheader, %if.then9
  %3 = phi i32 [ %dec, %if.then9 ], [ %0, %while.cond.preheader ]
  %4 = load ptr, ptr %this, align 8
  %sub = add nsw i32 %3, -1
  %vtable.i = load ptr, ptr %4, align 8
  %vfn.i = getelementptr inbounds i8, ptr %vtable.i, i64 80
  %5 = load ptr, ptr %vfn.i, align 8
  %call.i = call noundef i32 %5(ptr noundef nonnull align 8 dereferenceable(8) %4, i32 noundef %sub)
  %call6 = call i32 @uscript_getScript_75(i32 noundef %call.i, ptr noundef nonnull %ec)
  %or.cond = icmp ult i32 %call6, 2
  br i1 %or.cond, label %if.then9, label %while.end.loopexit

if.then9:                                         ; preds = %while.body
  %6 = load i32, ptr %start, align 4
  %dec = add nsw i32 %6, -1
  store i32 %dec, ptr %start, align 4
  %7 = load i32, ptr %textStart, align 8
  %cmp4 = icmp sgt i32 %dec, %7
  br i1 %cmp4, label %while.body, label %while.end.loopexit, !llvm.loop !4

while.end.loopexit:                               ; preds = %while.body, %if.then9
  %.pre = load i32, ptr %limit, align 8
  %.pre15 = load i32, ptr %textLimit, align 4
  br label %while.end

while.end:                                        ; preds = %while.end.loopexit, %while.cond.preheader
  %8 = phi i32 [ %.pre15, %while.end.loopexit ], [ %1, %while.cond.preheader ]
  %9 = phi i32 [ %.pre, %while.end.loopexit ], [ %0, %while.cond.preheader ]
  %cmp1514 = icmp slt i32 %9, %8
  br i1 %cmp1514, label %while.body16, label %return

while.body16:                                     ; preds = %while.end, %if.end34
  %10 = phi i32 [ %inc, %if.end34 ], [ %9, %while.end ]
  %11 = load ptr, ptr %this, align 8
  %vtable.i10 = load ptr, ptr %11, align 8
  %vfn.i11 = getelementptr inbounds i8, ptr %vtable.i10, i64 80
  %12 = load ptr, ptr %vfn.i11, align 8
  %call.i12 = call noundef i32 %12(ptr noundef nonnull align 8 dereferenceable(8) %11, i32 noundef %10)
  %call20 = call i32 @uscript_getScript_75(i32 noundef %call.i12, ptr noundef nonnull %ec)
  %or.cond1 = icmp ugt i32 %call20, 1
  br i1 %or.cond1, label %if.then23, label %if.end34

if.then23:                                        ; preds = %while.body16
  %13 = load i32, ptr %scriptCode, align 8
  %cmp25 = icmp eq i32 %13, -1
  br i1 %cmp25, label %if.then26, label %if.else28

if.then26:                                        ; preds = %if.then23
  store i32 %call20, ptr %scriptCode, align 8
  br label %if.end34

if.else28:                                        ; preds = %if.then23
  %cmp30.not = icmp eq i32 %call20, %13
  br i1 %cmp30.not, label %if.end34, label %return

if.end34:                                         ; preds = %if.then26, %if.else28, %while.body16
  %14 = load i32, ptr %limit, align 8
  %inc = add nsw i32 %14, 1
  store i32 %inc, ptr %limit, align 8
  %15 = load i32, ptr %textLimit, align 4
  %cmp15 = icmp slt i32 %inc, %15
  br i1 %cmp15, label %while.body16, label %return, !llvm.loop !6

return:                                           ; preds = %if.else28, %if.end34, %while.end, %entry
  %retval.0 = phi i8 [ 0, %entry ], [ 1, %while.end ], [ 1, %if.end34 ], [ 1, %if.else28 ]
  ret i8 %retval.0
}